; Function Attrs: mustprogress uwtable
define void @_ZN6google8protobuf7strings20GrowingArrayByteSinkC2Em(ptr nocapture noundef nonnull writeonly align 8 dereferenceable(32) %0, i64 noundef %1) unnamed_addr #3 align 2 personality ptr @__gxx_personality_v0 {
  store ptr getelementptr inbounds inrange(-16, 32) (i8, ptr @_ZTVN6google8protobuf7strings20GrowingArrayByteSinkE, i64 16), ptr %0, align 8
  %3 = getelementptr inbounds i8, ptr %0, i64 8
  store i64 %1, ptr %3, align 8
  %4 = tail call noalias noundef nonnull ptr @_Znam(i64 noundef %1) #18
  %5 = getelementptr inbounds i8, ptr %0, i64 16
  store ptr %4, ptr %5, align 8
  %6 = getelementptr inbounds i8, ptr %0, i64 24
  store i64 0, ptr %6, align 8
  ret void
}